target datalayout = "e-m:e-p270:32:32-p271:32:32-p272:64:64-i64:64-i128:128-f80:128-n8:16:32:64-S128"
target triple = "x86_64-pc-linux-gnu"

%struct._zend_compiler_globals = type { %struct._zend_stack, ptr, ptr, i32, ptr, ptr, ptr, ptr, i8, i8, i8, i8, i8, %struct._zend_llist, ptr, i8, i8, i8, i8, ptr, i32, i32, %struct._zend_oparray_context, %struct._zend_file_context, ptr, %struct._zend_array, ptr, i64, i8, i8, i8, ptr, ptr, %struct._zend_stack, ptr, i32, ptr, ptr, i64, i64, ptr, ptr, ptr, ptr, i32, %struct._zend_stack }
%struct._zend_llist = type { ptr, ptr, i64, i64, ptr, i8, ptr }
%struct._zend_oparray_context = type { i32, i32, i32, i32, i32, i32, i32, ptr, ptr, i8 }
%struct._zend_file_context = type { %struct._zend_declarables, ptr, i8, i8, ptr, ptr, ptr, %struct._zend_array }
%struct._zend_declarables = type { i64 }
%struct._zend_array = type { %struct._zend_refcounted_h, %union.anon.0, i32, %union.anon.1, i32, i32, i32, i32, i64, ptr }
%struct._zend_refcounted_h = type { i32, %union.anon }
%union.anon = type { i32 }
%union.anon.0 = type { i32 }
%union.anon.1 = type { ptr }
%struct._zend_stack = type { i32, i32, i32, ptr }
%struct._zend_php_scanner_globals = type { ptr, ptr, i32, ptr, ptr, ptr, ptr, ptr, i32, %struct._zend_stack, %struct._zend_ptr_stack, %struct._zend_stack, i8, i32, i8, ptr, i64, ptr, i64, ptr, ptr, ptr, i32, ptr, ptr }
%struct._zend_ptr_stack = type { i32, i32, ptr, ptr, i8 }

@compiler_globals = external global %struct._zend_compiler_globals, align 8
@language_scanner_globals = global %struct._zend_php_scanner_globals zeroinitializer, align 8

; Function Attrs: nounwind uwtable
define hidden void @shutdown_scanner() #0 {
  %1 = alloca ptr, align 8
  %2 = alloca i32, align 4
  %3 = alloca ptr, align 8
  %4 = alloca i8, align 1
  store i8 0, ptr getelementptr inbounds (%struct._zend_compiler_globals, ptr @compiler_globals, i32 0, i32 8), align 8
  br label %5

5:                                                ; preds = %0
  %6 = load ptr, ptr getelementptr inbounds (%struct._zend_compiler_globals, ptr @compiler_globals, i32 0, i32 19), align 8
  %7 = icmp ne ptr %6, null
  br i1 %7, label %8, label %36

8:                                                ; preds = %5
  %9 = load ptr, ptr getelementptr inbounds (%struct._zend_compiler_globals, ptr @compiler_globals, i32 0, i32 19), align 8
  store ptr %9, ptr %3, align 8
  store i8 0, ptr %4, align 1
  %10 = load ptr, ptr %3, align 8
  %11 = getelementptr inbounds %struct._zend_refcounted_h, ptr %10, i32 0, i32 1
  %12 = load i32, ptr %11, align 4
  store i32 %12, ptr %2, align 4
  %13 = load i32, ptr %2, align 4
  %14 = and i32 %13, 1008
  %15 = and i32 %14, 64
  %16 = icmp ne i32 %15, 0
  br i1 %16, label %35, label %17

17:                                               ; preds = %8
  %18 = load ptr, ptr %3, align 8
  store ptr %18, ptr %1, align 8
  %19 = load ptr, ptr %1, align 8
  %20 = load i32, ptr %19, align 4
  %21 = icmp ugt i32 %20, 0
  call void @llvm.assume(i1 %21)
  %22 = load ptr, ptr %1, align 8
  %23 = load i32, ptr %22, align 4
  %24 = add i32 %23, -1
  store i32 %24, ptr %22, align 4
  %25 = icmp eq i32 %24, 0
  br i1 %25, label %26, label %34

26:                                               ; preds = %17
  %27 = load i8, ptr %4, align 1
  %28 = trunc i8 %27 to i1
  br i1 %28, label %29, label %31

29:                                               ; preds = %26
  %30 = load ptr, ptr %3, align 8
  call void @free(ptr noundef %30) #12
  br label %33

31:                                               ; preds = %26
  %32 = load ptr, ptr %3, align 8
  call void @_efree(ptr noundef %32) #12
  br label %33

33:                                               ; preds = %31, %29
  br label %34

34:                                               ; preds = %33, %17
  br label %35

35:                                               ; preds = %34, %8
  store ptr null, ptr getelementptr inbounds (%struct._zend_compiler_globals, ptr @compiler_globals, i32 0, i32 19), align 8
  br label %36

36:                                               ; preds = %35, %5
  br label %37

37:                                               ; preds = %36
  call void @zend_stack_destroy(ptr noundef getelementptr inbounds (%struct._zend_php_scanner_globals, ptr @language_scanner_globals, i32 0, i32 9))
  call void @zend_stack_destroy(ptr noundef getelementptr inbounds (%struct._zend_php_scanner_globals, ptr @language_scanner_globals, i32 0, i32 11))
  call void @zend_ptr_stack_clean(ptr noundef getelementptr inbounds (%struct._zend_php_scanner_globals, ptr @language_scanner_globals, i32 0, i32 10), ptr noundef @heredoc_label_dtor, i1 noundef zeroext true)
  call void @zend_ptr_stack_destroy(ptr noundef getelementptr inbounds (%struct._zend_php_scanner_globals, ptr @language_scanner_globals, i32 0, i32 10))
  store i8 0, ptr getelementptr inbounds (%struct._zend_php_scanner_globals, ptr @language_scanner_globals, i32 0, i32 12), align 8
  store ptr null, ptr getelementptr inbounds (%struct._zend_php_scanner_globals, ptr @language_scanner_globals, i32 0, i32 23), align 8
  ret void
}