; Function Attrs: nounwind uwtable
define hidden void @shutdown_scanner() local_unnamed_addr #0 {
  store i8 0, ptr getelementptr inbounds (%struct._zend_compiler_globals, ptr @compiler_globals, i64 0, i32 8), align 8
  %1 = load ptr, ptr getelementptr inbounds (%struct._zend_compiler_globals, ptr @compiler_globals, i64 0, i32 19), align 8
  %.not = icmp eq ptr %1, null
  br i1 %.not, label %13, label %2

2:                                                ; preds = %0
  %3 = getelementptr inbounds i8, ptr %1, i64 4
  %4 = load i32, ptr %3, align 4
  %5 = and i32 %4, 64
  %.not7 = icmp eq i32 %5, 0
  br i1 %.not7, label %6, label %12

6:                                                ; preds = %2
  %7 = load i32, ptr %1, align 4
  %8 = icmp ne i32 %7, 0
  tail call void @llvm.assume(i1 %8)
  %9 = add i32 %7, -1
  store i32 %9, ptr %1, align 4
  %10 = icmp eq i32 %9, 0
  br i1 %10, label %11, label %12

11:                                               ; preds = %6
  tail call void @_efree(ptr noundef nonnull %1) #16
  br label %12

12:                                               ; preds = %6, %11, %2
  store ptr null, ptr getelementptr inbounds (%struct._zend_compiler_globals, ptr @compiler_globals, i64 0, i32 19), align 8
  br label %13

13:                                               ; preds = %0, %12
  tail call void @zend_stack_destroy(ptr noundef nonnull getelementptr inbounds (%struct._zend_php_scanner_globals, ptr @language_scanner_globals, i64 0, i32 9)) #16
  tail call void @zend_stack_destroy(ptr noundef nonnull getelementptr inbounds (%struct._zend_php_scanner_globals, ptr @language_scanner_globals, i64 0, i32 11)) #16
  tail call void @zend_ptr_stack_clean(ptr noundef nonnull getelementptr inbounds (%struct._zend_php_scanner_globals, ptr @language_scanner_globals, i64 0, i32 10), ptr noundef nonnull @heredoc_label_dtor, i1 noundef zeroext true) #16
  tail call void @zend_ptr_stack_destroy(ptr noundef nonnull getelementptr inbounds (%struct._zend_php_scanner_globals, ptr @language_scanner_globals, i64 0, i32 10)) #16
  store i8 0, ptr getelementptr inbounds (%struct._zend_php_scanner_globals, ptr @language_scanner_globals, i64 0, i32 12), align 8
  store ptr null, ptr getelementptr inbounds (%struct._zend_php_scanner_globals, ptr @language_scanner_globals, i64 0, i32 23), align 8
  ret void
}